ARM GAS  /tmp/ccsqlT92.s 			page 1


   1              		.syntax unified
   2              		.cpu cortex-m4
   3              		.eabi_attribute 27, 1
   4              		.eabi_attribute 28, 1
   5              		.fpu fpv4-sp-d16
   6              		.eabi_attribute 20, 1
   7              		.eabi_attribute 21, 1
   8              		.eabi_attribute 23, 3
   9              		.eabi_attribute 24, 1
  10              		.eabi_attribute 25, 1
  11              		.eabi_attribute 26, 1
  12              		.eabi_attribute 30, 4
  13              		.eabi_attribute 34, 1
  14              		.eabi_attribute 18, 4
  15              		.thumb
  16              		.syntax unified
  17              		.file	"waves.cpp"
  18              		.text
  19              	.Ltext0:
  20              		.cfi_sections	.debug_frame
  21              		.section	.text._ZN5Waves5StateC2Ev,"axG",%progbits,_ZN5Waves5StateC5Ev,comdat
  22              		.align	1
  23              		.weak	_ZN5Waves5StateC2Ev
  24              		.thumb
  25              		.thumb_func
  26              		.type	_ZN5Waves5StateC2Ev, %function
  27              	_ZN5Waves5StateC2Ev:
  28              	.LFB285:
  29              		.file 1 "waves.hpp"
  30              		.loc 1 98 0
  31              		.cfi_startproc
  32              		@ args = 0, pretend = 0, frame = 0
  33              		@ frame_needed = 0, uses_anonymous_args = 0
  34              	.LVL0:
  35              	.LBB192:
  36              		.loc 1 99 0
  37 0000 124B     		ldr	r3, .L2
  38              		.loc 1 100 0
  39 0002 134A     		ldr	r2, .L2+4
  40              		.loc 1 99 0
  41 0004 1B68     		ldr	r3, [r3]
  42              		.loc 1 110 0
  43 0006 1268     		ldr	r2, [r2]
  44              	.LBE192:
  45              		.loc 1 98 0
  46 0008 10B5     		push	{r4, lr}
  47              		.cfi_def_cfa_offset 8
  48              		.cfi_offset 4, -8
  49              		.cfi_offset 14, -4
  50              	.LBB197:
  51              		.loc 1 110 0
  52 000a 0360     		str	r3, [r0]
  53 000c 8360     		str	r3, [r0, #8]
  54 000e 114B     		ldr	r3, .L2+8
  55 0010 4260     		str	r2, [r0, #4]
  56 0012 8361     		str	r3, [r0, #24]	@ float
  57 0014 C361     		str	r3, [r0, #28]	@ float
ARM GAS  /tmp/ccsqlT92.s 			page 2


  58 0016 4FF07E52 		mov	r2, #1065353216
  59 001a 0F4B     		ldr	r3, .L2+12
  60 001c 0362     		str	r3, [r0, #32]	@ float
  61 001e 0263     		str	r2, [r0, #48]	@ float
  62 0020 0023     		movs	r3, #0
  63 0022 4263     		str	r2, [r0, #52]	@ float
  64 0024 0022     		movs	r2, #0
  65 0026 4362     		str	r3, [r0, #36]	@ float
  66 0028 8362     		str	r3, [r0, #40]	@ float
  67 002a C362     		str	r3, [r0, #44]	@ float
  68 002c 80F83C20 		strb	r2, [r0, #60]
  69              	.LVL1:
  70              	.LBB193:
  71              	.LBB194:
  72              		.loc 1 118 0
  73 0030 C360     		str	r3, [r0, #12]	@ float
  74              		.loc 1 119 0
  75 0032 0361     		str	r3, [r0, #16]	@ float
  76              		.loc 1 120 0
  77 0034 4361     		str	r3, [r0, #20]	@ float
  78              	.LVL2:
  79              	.LBE194:
  80              	.LBE193:
  81              	.LBE197:
  82              		.loc 1 98 0
  83 0036 0446     		mov	r4, r0
  84              	.LBB198:
  85              	.LBB195:
  86              	.LBB196:
  87              		.file 2 "/home/horkheimer/coding/nts1/logue-sdk/platform/nutekt-digital/inc/osc_api.h"
  88              		.loc 2 780 0
  89 0038 FFF7FEFF 		bl	_osc_white
  90              	.LVL3:
  91              	.LBE196:
  92              	.LBE195:
  93              		.loc 1 113 0
  94 003c DFED077A 		vldr.32	s15, .L2+16
  95 0040 20EE270A 		vmul.f32	s0, s0, s15
  96              	.LBE198:
  97              		.loc 1 114 0
  98 0044 2046     		mov	r0, r4
  99              	.LBB199:
 100              		.loc 1 113 0
 101 0046 84ED0E0A 		vstr.32	s0, [r4, #56]
 102              	.LBE199:
 103              		.loc 1 114 0
 104 004a 10BD     		pop	{r4, pc}
 105              	.LVL4:
 106              	.L3:
 107              		.align	2
 108              	.L2:
 109 004c 00000000 		.word	wavesA
 110 0050 00000000 		.word	wavesD
 111 0054 C92F163C 		.word	1008086985
 112 0058 C92F963B 		.word	999698377
 113 005c 8AD08B35 		.word	898355338
 114              		.cfi_endproc
ARM GAS  /tmp/ccsqlT92.s 			page 3


 115              	.LFE285:
 116              		.size	_ZN5Waves5StateC2Ev, .-_ZN5Waves5StateC2Ev
 117              		.weak	_ZN5Waves5StateC1Ev
 118              		.thumb_set _ZN5Waves5StateC1Ev,_ZN5Waves5StateC2Ev
 119              		.text
 120              		.align	1
 121              		.global	_hook_init
 122              		.thumb
 123              		.thumb_func
 124              		.type	_hook_init, %function
 125              	_hook_init:
 126              	.LFB294:
 127              		.file 3 "waves.cpp"
 128              		.loc 3 47 0
 129              		.cfi_startproc
 130              		@ args = 0, pretend = 0, frame = 0
 131              		@ frame_needed = 0, uses_anonymous_args = 0
 132              		@ link register save eliminated.
 133              	.LVL5:
 134 0000 7047     		bx	lr
 135              		.cfi_endproc
 136              	.LFE294:
 137              		.size	_hook_init, .-_hook_init
 138              		.align	1
 139              		.global	_hook_cycle
 140              		.thumb
 141              		.thumb_func
 142              		.type	_hook_cycle, %function
 143              	_hook_cycle:
 144              	.LFB295:
 145              		.loc 3 55 0
 146              		.cfi_startproc
 147              		@ args = 0, pretend = 0, frame = 0
 148              		@ frame_needed = 0, uses_anonymous_args = 0
 149              	.LVL6:
 150              		.loc 3 55 0
 151 0002 2DE9F041 		push	{r4, r5, r6, r7, r8, lr}
 152              		.cfi_def_cfa_offset 24
 153              		.cfi_offset 4, -24
 154              		.cfi_offset 5, -20
 155              		.cfi_offset 6, -16
 156              		.cfi_offset 7, -12
 157              		.cfi_offset 8, -8
 158              		.cfi_offset 14, -4
 159              	.LBB280:
 160              		.loc 3 62 0
 161 0006 DD4C     		ldr	r4, .L53
 162              		.loc 3 65 0
 163 0008 8688     		ldrh	r6, [r0, #4]
 164              	.LBB281:
 165              	.LBB282:
 166              	.LBB283:
 167              	.LBB284:
 168              		.loc 2 115 0
 169 000a DD4F     		ldr	r7, .L53+4
 170              	.LBE284:
 171              	.LBE283:
ARM GAS  /tmp/ccsqlT92.s 			page 4


 172              	.LBB290:
 173              	.LBB291:
 174              		.file 4 "/home/horkheimer/coding/nts1/logue-sdk/platform/nutekt-digital/inc/utils/float_math.h"
 175              		.loc 4 826 0
 176 000c 9FEDDD6A 		vldr.32	s12, .L53+8
 177              	.LBE291:
 178              	.LBE290:
 179              	.LBE282:
 180              	.LBE281:
 181              		.loc 3 63 0
 182 0010 0023     		movs	r3, #0
 183              	.LBE280:
 184              		.loc 3 55 0
 185 0012 0D46     		mov	r5, r1
 186              	.LBB355:
 187              		.loc 3 62 0
 188 0014 94F83C10 		ldrb	r1, [r4, #60]	@ zero_extendqisi2
 189              	.LVL7:
 190              		.loc 3 63 0
 191 0018 84F83C30 		strb	r3, [r4, #60]
 192              		.loc 3 65 0
 193 001c 3312     		asrs	r3, r6, #8
 194              	.LBB315:
 195              	.LBB311:
 196              	.LBB295:
 197              	.LBB285:
 198              		.loc 2 115 0
 199 001e 962B     		cmp	r3, #150
 200              	.LBE285:
 201              	.LBE295:
 202              	.LBE311:
 203              	.LBE315:
 204              		.loc 3 65 0
 205 0020 F6B2     		uxtb	r6, r6
 206 0022 07EE906A 		vmov	s15, r6	@ int
 207              	.LVL8:
 208              	.LBB316:
 209              	.LBB312:
 210              	.LBB296:
 211              	.LBB286:
 212              		.loc 2 115 0
 213 0026 D8BF     		it	le
 214 0028 1E46     		movle	r6, r3
 215              	.LVL9:
 216              	.LBE286:
 217              	.LBE296:
 218              		.loc 2 126 0
 219 002a 03F10103 		add	r3, r3, #1
 220              	.LVL10:
 221 002e DBB2     		uxtb	r3, r3
 222              	.LVL11:
 223              	.LBB297:
 224              	.LBB287:
 225              		.loc 2 115 0
 226 0030 C8BF     		it	gt
 227 0032 9726     		movgt	r6, #151
 228              	.LVL12:
ARM GAS  /tmp/ccsqlT92.s 			page 5


 229              	.LBE287:
 230              	.LBE297:
 231              	.LBB298:
 232              	.LBB299:
 233 0034 962B     		cmp	r3, #150
 234 0036 88BF     		it	hi
 235 0038 9723     		movhi	r3, #151
 236              	.LBE299:
 237              	.LBE298:
 238              	.LBB301:
 239              	.LBB288:
 240 003a 07EB8606 		add	r6, r7, r6, lsl #2
 241              	.LBE288:
 242              	.LBE301:
 243              	.LBB302:
 244              	.LBB300:
 245 003e 07EB8303 		add	r3, r7, r3, lsl #2
 246              	.LBE300:
 247              	.LBE302:
 248              	.LBB303:
 249              	.LBB289:
 250 0042 96ED007A 		vldr.32	s14, [r6]
 251              	.LVL13:
 252              	.LBE289:
 253              	.LBE303:
 254              	.LBB304:
 255              	.LBB292:
 256              		.loc 4 826 0
 257 0046 D3ED006A 		vldr.32	s13, [r3]
 258 004a F8EEE77A 		vcvt.f32.s32	s15, s15
 259              	.LVL14:
 260 004e 76EEC76A 		vsub.f32	s13, s13, s14
 261 0052 67EE867A 		vmul.f32	s15, s15, s12
 262              	.LBE292:
 263              	.LBE304:
 264              	.LBE312:
 265              	.LBE316:
 266              	.LBE355:
 267              		.loc 3 55 0
 268 0056 2DED108B 		vpush.64	{d8, d9, d10, d11, d12, d13, d14, d15}
 269              		.cfi_def_cfa_offset 88
 270              		.cfi_offset 80, -88
 271              		.cfi_offset 81, -84
 272              		.cfi_offset 82, -80
 273              		.cfi_offset 83, -76
 274              		.cfi_offset 84, -72
 275              		.cfi_offset 85, -68
 276              		.cfi_offset 86, -64
 277              		.cfi_offset 87, -60
 278              		.cfi_offset 88, -56
 279              		.cfi_offset 89, -52
 280              		.cfi_offset 90, -48
 281              		.cfi_offset 91, -44
 282              		.cfi_offset 92, -40
 283              		.cfi_offset 93, -36
 284              		.cfi_offset 94, -32
 285              		.cfi_offset 95, -28
ARM GAS  /tmp/ccsqlT92.s 			page 6


 286              	.LBB356:
 287              	.LBB317:
 288              	.LBB313:
 289              	.LBB305:
 290              	.LBB293:
 291              		.loc 4 826 0
 292 005a A6EEA77A 		vfma.f32	s14, s13, s15
 293              	.LBE293:
 294              	.LBE305:
 295              	.LBE313:
 296              	.LBE317:
 297              	.LBB318:
 298              	.LBB319:
 299              		.loc 1 137 0
 300 005e DFEDCA6A 		vldr.32	s13, .L53+12
 301              	.LBE319:
 302              	.LBE318:
 303              	.LBB322:
 304              	.LBB314:
 305              	.LBB306:
 306              	.LBB294:
 307              		.loc 4 826 0
 308 0062 F0EE477A 		vmov.f32	s15, s14
 309              	.LVL15:
 310              	.LBE294:
 311              	.LBE306:
 312              	.LBB307:
 313              	.LBB308:
 314              	.LBB309:
 315              	.LBB310:
 316              		.loc 4 193 0
 317 0066 9FEDC97A 		vldr.32	s14, .L53+16
 318              	.LVL16:
 319 006a F4EEC77A 		vcmpe.f32	s15, s14
 320 006e F1EE10FA 		vmrs	APSR_nzcv, FPSCR
 321 0072 A8BF     		it	ge
 322 0074 F0EE477A 		vmovge.f32	s15, s14
 323              	.LVL17:
 324              	.LBE310:
 325              	.LBE309:
 326              	.LBE308:
 327              	.LBE307:
 328              	.LBE314:
 329              	.LBE322:
 330              	.LBB323:
 331              	.LBB320:
 332              		.loc 1 137 0
 333 0078 94ED0E7A 		vldr.32	s14, [r4, #56]
 334 007c A7EEA67A 		vfma.f32	s14, s15, s13
 335              	.LVL18:
 336              	.LBE320:
 337              	.LBE323:
 338              	.LBB324:
 339              	.LBB325:
 340              		.loc 1 147 0
 341 0080 8E07     		lsls	r6, r1, #30
 342              	.LBE325:
ARM GAS  /tmp/ccsqlT92.s 			page 7


 343              	.LBE324:
 344              	.LBB334:
 345              	.LBB321:
 346              		.loc 1 138 0
 347 0082 D4ED147A 		vldr.32	s15, [r4, #80]
 348              	.LVL19:
 349              		.loc 1 141 0
 350 0086 DFEDC26A 		vldr.32	s13, .L53+20
 351              		.loc 1 139 0
 352 008a 84ED067A 		vstr.32	s14, [r4, #24]
 353              		.loc 1 141 0
 354 008e B0EE476A 		vmov.f32	s12, s14
 355 0092 A7EEA66A 		vfma.f32	s12, s15, s13
 356              		.loc 1 143 0
 357 0096 DFEDBF6A 		vldr.32	s13, .L53+24
 358              		.loc 1 141 0
 359 009a 84ED076A 		vstr.32	s12, [r4, #28]
 360              		.loc 1 143 0
 361 009e 67EEA67A 		vmul.f32	s15, s15, s13
 362              	.LVL20:
 363 00a2 F6EE006A 		vmov.f32	s13, #5.0e-1
 364 00a6 E7EE267A 		vfma.f32	s15, s14, s13
 365 00aa C4ED087A 		vstr.32	s15, [r4, #32]
 366              	.LVL21:
 367              	.LBE321:
 368              	.LBE334:
 369              	.LBB335:
 370              	.LBB327:
 371              		.loc 1 147 0
 372 00ae 11D5     		bpl	.L9
 373              	.LBB326:
 374              		.loc 1 152 0
 375 00b0 94F85430 		ldrb	r3, [r4, #84]	@ zero_extendqisi2
 376              	.LVL22:
 377              		.loc 1 155 0
 378 00b4 0F2B     		cmp	r3, #15
 379 00b6 09D9     		bls	.L27
 380              		.loc 1 158 0
 381 00b8 1F2B     		cmp	r3, #31
 382              	.LVL23:
 383              		.loc 1 160 0
 384 00ba 97BF     		itett	ls
 385 00bc 103B     		subls	r3, r3, #16
 386              	.LVL24:
 387              		.loc 1 164 0
 388 00be 203B     		subhi	r3, r3, #32
 389              		.loc 1 160 0
 390 00c0 DBB2     		uxtbls	r3, r3
 391              	.LVL25:
 392              		.loc 1 159 0
 393 00c2 B54E     		ldrls	r6, .L53+28
 394              	.LVL26:
 395              		.loc 1 163 0
 396 00c4 84BF     		itt	hi
 397 00c6 B54E     		ldrhi	r6, .L53+32
 398              		.loc 1 164 0
 399 00c8 DBB2     		uxtbhi	r3, r3
ARM GAS  /tmp/ccsqlT92.s 			page 8


 400              	.LVL27:
 401 00ca 00E0     		b	.L10
 402              	.LVL28:
 403              	.L27:
 404              		.loc 1 156 0
 405 00cc B44E     		ldr	r6, .L53+36
 406              	.L10:
 407              	.LVL29:
 408              		.loc 1 166 0
 409 00ce 56F82330 		ldr	r3, [r6, r3, lsl #2]
 410              	.LVL30:
 411 00d2 2360     		str	r3, [r4]
 412              	.LVL31:
 413              	.L9:
 414              	.LBE326:
 415              	.LBE327:
 416              	.LBB328:
 417              		.loc 1 168 0
 418 00d4 4B07     		lsls	r3, r1, #29
 419 00d6 11D5     		bpl	.L12
 420              	.LBB329:
 421              		.loc 1 173 0
 422 00d8 94F85530 		ldrb	r3, [r4, #85]	@ zero_extendqisi2
 423              	.LVL32:
 424              		.loc 1 176 0
 425 00dc 0C2B     		cmp	r3, #12
 426 00de 09D9     		bls	.L28
 427              		.loc 1 179 0
 428 00e0 1B2B     		cmp	r3, #27
 429              	.LVL33:
 430              		.loc 1 181 0
 431 00e2 97BF     		itett	ls
 432 00e4 0D3B     		subls	r3, r3, #13
 433              	.LVL34:
 434              		.loc 1 185 0
 435 00e6 1C3B     		subhi	r3, r3, #28
 436              		.loc 1 181 0
 437 00e8 DBB2     		uxtbls	r3, r3
 438              	.LVL35:
 439              		.loc 1 180 0
 440 00ea AE4E     		ldrls	r6, .L53+40
 441              	.LVL36:
 442              		.loc 1 184 0
 443 00ec 84BF     		itt	hi
 444 00ee AE4E     		ldrhi	r6, .L53+44
 445              		.loc 1 185 0
 446 00f0 DBB2     		uxtbhi	r3, r3
 447              	.LVL37:
 448 00f2 00E0     		b	.L13
 449              	.LVL38:
 450              	.L28:
 451              		.loc 1 177 0
 452 00f4 AD4E     		ldr	r6, .L53+48
 453              	.L13:
 454              	.LVL39:
 455              		.loc 1 188 0
 456 00f6 56F82330 		ldr	r3, [r6, r3, lsl #2]
ARM GAS  /tmp/ccsqlT92.s 			page 9


 457              	.LVL40:
 458 00fa 6360     		str	r3, [r4, #4]
 459              	.LVL41:
 460              	.L12:
 461              	.LBE329:
 462              	.LBE328:
 463              	.LBB330:
 464              		.loc 1 190 0
 465 00fc 0F07     		lsls	r7, r1, #28
 466              	.LVL42:
 467              	.LBB331:
 468              		.loc 1 192 0
 469 00fe 44BF     		itt	mi
 470 0100 A74B     		ldrmi	r3, .L53+36
 471 0102 94F85660 		ldrbmi	r6, [r4, #86]	@ zero_extendqisi2
 472              	.LBE331:
 473              	.LBE330:
 474              	.LBE335:
 475              		.loc 3 72 0
 476 0106 90ED007A 		vldr.32	s14, [r0]	@ int
 477              	.LBB336:
 478              	.LBB333:
 479              	.LBB332:
 480              		.loc 1 192 0
 481 010a 44BF     		itt	mi
 482 010c 53F82630 		ldrmi	r3, [r3, r6, lsl #2]
 483 0110 A360     		strmi	r3, [r4, #8]
 484              	.LVL43:
 485              	.LBE332:
 486              	.LBE333:
 487              	.LBE336:
 488              		.loc 3 69 0
 489 0112 4E06     		lsls	r6, r1, #25
 490              	.LVL44:
 491              	.LBB337:
 492              	.LBB338:
 493              		.loc 1 118 0
 494 0114 48BF     		it	mi
 495 0116 0023     		movmi	r3, #0
 496              	.LBE338:
 497              	.LBE337:
 498              		.loc 3 72 0
 499 0118 BAEEE07A 		vcvt.f32.s32	s14, s14, #31
 500              	.LBB340:
 501              	.LBB339:
 502              		.loc 1 118 0
 503 011c 42BF     		ittt	mi
 504 011e E360     		strmi	r3, [r4, #12]	@ float
 505              		.loc 1 119 0
 506 0120 2361     		strmi	r3, [r4, #16]	@ float
 507              		.loc 1 120 0
 508 0122 6361     		strmi	r3, [r4, #20]	@ float
 509              	.LBE339:
 510              	.LBE340:
 511              		.loc 3 74 0
 512 0124 8906     		lsls	r1, r1, #26
 513              	.LVL45:
ARM GAS  /tmp/ccsqlT92.s 			page 10


 514              		.loc 3 72 0
 515 0126 954B     		ldr	r3, .L53
 516 0128 84ED097A 		vstr.32	s14, [r4, #36]
 517              		.loc 3 74 0
 518 012c 2AD5     		bpl	.L17
 519              		.loc 3 75 0
 520 012e D3ED127A 		vldr.32	s15, [r3, #72]
 521 0132 DFED9F6A 		vldr.32	s13, .L53+52
 522              	.LBB341:
 523              	.LBB342:
 524              		.loc 2 744 0
 525 0136 9F49     		ldr	r1, .L53+56
 526              	.LBE342:
 527              	.LBE341:
 528              		.loc 3 75 0
 529 0138 67EEA66A 		vmul.f32	s13, s15, s13
 530 013c C3ED0B6A 		vstr.32	s13, [r3, #44]
 531              	.LVL46:
 532              	.LBB353:
 533              	.LBB351:
 534              		.loc 2 742 0
 535 0140 DFED9D6A 		vldr.32	s13, .L53+60
 536 0144 67EEA67A 		vmul.f32	s15, s15, s13
 537              	.LVL47:
 538              		.loc 2 743 0
 539 0148 FCEEE76A 		vcvt.u32.f32	s13, s15
 540 014c 16EE900A 		vmov	r0, s13	@ int
 541              	.LVL48:
 542              	.LBB343:
 543              	.LBB344:
 544              		.loc 4 826 0
 545 0150 06EE100A 		vmov	s12, r0	@ int
 546 0154 B8EE466A 		vcvt.f32.u32	s12, s12
 547              	.LBE344:
 548              	.LBE343:
 549              		.loc 2 744 0
 550 0158 01EB8006 		add	r6, r1, r0, lsl #2
 551              	.LBB348:
 552              	.LBB345:
 553              		.loc 4 826 0
 554 015c 77EEC67A 		vsub.f32	s15, s15, s12
 555              	.LVL49:
 556              	.LBE345:
 557              	.LBE348:
 558              		.loc 2 744 0
 559 0160 D6ED006A 		vldr.32	s13, [r6]
 560              	.LVL50:
 561              	.LBB349:
 562              	.LBB346:
 563              		.loc 4 826 0
 564 0164 96ED016A 		vldr.32	s12, [r6, #4]
 565 0168 36EE666A 		vsub.f32	s12, s12, s13
 566 016c E7EE866A 		vfma.f32	s13, s15, s12
 567              	.LVL51:
 568              	.LBE346:
 569              	.LBE349:
 570              	.LBE351:
ARM GAS  /tmp/ccsqlT92.s 			page 11


 571              	.LBE353:
 572              		.loc 3 77 0
 573 0170 B7EE006A 		vmov.f32	s12, #1.0e+0
 574              	.LBB354:
 575              	.LBB352:
 576              	.LBB350:
 577              	.LBB347:
 578              		.loc 4 826 0
 579 0174 F0EE667A 		vmov.f32	s15, s13
 580              	.LVL52:
 581              	.LBE347:
 582              	.LBE350:
 583              	.LBE352:
 584              	.LBE354:
 585              		.loc 3 76 0
 586 0178 C3ED0C6A 		vstr.32	s13, [r3, #48]
 587              		.loc 3 77 0
 588 017c C6EE276A 		vdiv.f32	s13, s12, s15
 589 0180 C3ED0D6A 		vstr.32	s13, [r3, #52]
 590              	.L17:
 591              	.LBE356:
 592              		.loc 3 86 0
 593 0184 D4ED0ACA 		vldr.32	s25, [r4, #40]
 594              		.loc 3 82 0
 595 0188 94ED03CA 		vldr.32	s24, [r4, #12]
 596              	.LVL53:
 597              		.loc 3 83 0
 598 018c D4ED04BA 		vldr.32	s23, [r4, #16]
 599              	.LVL54:
 600              		.loc 3 84 0
 601 0190 94ED05BA 		vldr.32	s22, [r4, #20]
 602              	.LVL55:
 603              		.loc 3 94 0
 604 0194 D4ED108A 		vldr.32	s17, [r4, #64]
 605              		.loc 3 95 0
 606 0198 94ED119A 		vldr.32	s18, [r4, #68]
 607              	.LBB357:
 608              	.LBB358:
 609              	.LBB359:
 610              	.LBB360:
 611              		.loc 2 557 0
 612 019c 9FED86DA 		vldr.32	s26, .L53+60
 613              	.LBE360:
 614              	.LBE359:
 615              		.loc 3 109 0
 616 01a0 9FED86AA 		vldr.32	s20, .L53+64
 617 01a4 DFED86AA 		vldr.32	s21, .L53+68
 618              	.LBE358:
 619              	.LBE357:
 620              		.loc 3 87 0
 621 01a8 07EE902A 		vmov	s15, r2	@ int
 622 01ac 37EE6C7A 		vsub.f32	s14, s14, s25
 623 01b0 F8EE677A 		vcvt.f32.u32	s15, s15
 624              		.loc 3 101 0
 625 01b4 05EB8206 		add	r6, r5, r2, lsl #2
 626              		.loc 3 87 0
 627 01b8 C7EE279A 		vdiv.f32	s19, s14, s15
ARM GAS  /tmp/ccsqlT92.s 			page 12


 628              	.LVL56:
 629              	.L23:
 630              	.LBB495:
 631              		.loc 3 103 0
 632 01bc B542     		cmp	r5, r6
 633 01be 00F09B81 		beq	.L18
 634              	.LBB494:
 635              		.loc 3 108 0
 636 01c2 2068     		ldr	r0, [r4]
 637              	.LVL57:
 638              		.loc 3 109 0
 639 01c4 6168     		ldr	r1, [r4, #4]
 640              	.LBB368:
 641              	.LBB361:
 642              		.loc 2 557 0
 643 01c6 BCEECC7A 		vcvt.u32.f32	s14, s24
 644              	.LBE361:
 645              	.LBE368:
 646              	.LBB369:
 647              	.LBB370:
 648 01ca FCEEEB7A 		vcvt.u32.f32	s15, s23
 649              	.LBE370:
 650              	.LBE369:
 651              	.LBB380:
 652              	.LBB362:
 653 01ce B8EE477A 		vcvt.f32.u32	s14, s14
 654              	.LBE362:
 655              	.LBE380:
 656              	.LBB381:
 657              	.LBB371:
 658 01d2 F8EE677A 		vcvt.f32.u32	s15, s15
 659              	.LBE371:
 660              	.LBE381:
 661              	.LBB382:
 662              	.LBB363:
 663 01d6 3CEE477A 		vsub.f32	s14, s24, s14
 664              	.LBE363:
 665              	.LBE382:
 666              	.LBB383:
 667              	.LBB372:
 668 01da 7BEEE77A 		vsub.f32	s15, s23, s15
 669              	.LBE372:
 670              	.LBE383:
 671              	.LBB384:
 672              	.LBB364:
 673 01de 27EE0D7A 		vmul.f32	s14, s14, s26
 674              	.LVL58:
 675              	.LBE364:
 676              	.LBE384:
 677              	.LBB385:
 678              	.LBB373:
 679 01e2 67EE8D7A 		vmul.f32	s15, s15, s26
 680              	.LBE373:
 681              	.LBE385:
 682              	.LBB386:
 683              	.LBB365:
 684              		.loc 2 558 0
ARM GAS  /tmp/ccsqlT92.s 			page 13


 685 01e6 BCEEC75A 		vcvt.u32.f32	s10, s14
 686              	.LBE365:
 687              	.LBE386:
 688              	.LBB387:
 689              	.LBB374:
 690 01ea FCEEE75A 		vcvt.u32.f32	s11, s15
 691              	.LBE374:
 692              	.LBE387:
 693              	.LBB388:
 694              	.LBB366:
 695 01ee 15EE103A 		vmov	r3, s10	@ int
 696 01f2 03F07F02 		and	r2, r3, #127
 697              	.LVL59:
 698              		.loc 2 560 0
 699 01f6 00EB8203 		add	r3, r0, r2, lsl #2
 700 01fa 0132     		adds	r2, r2, #1
 701              	.LVL60:
 702 01fc 93ED006A 		vldr.32	s12, [r3]
 703              	.LVL61:
 704              	.LBE366:
 705              	.LBE388:
 706              		.loc 3 109 0
 707 0200 B8EE455A 		vcvt.f32.u32	s10, s10
 708              	.LBB389:
 709              	.LBB375:
 710              		.loc 2 558 0
 711 0204 15EE903A 		vmov	r3, s11	@ int
 712              	.LBE375:
 713              	.LBE389:
 714              	.LBB390:
 715              	.LBB367:
 716              		.loc 2 560 0
 717 0208 02F07F02 		and	r2, r2, #127
 718 020c 00EB8202 		add	r2, r0, r2, lsl #2
 719              	.LBE367:
 720              	.LBE390:
 721              		.loc 3 109 0
 722 0210 37EE457A 		vsub.f32	s14, s14, s10
 723              	.LBB391:
 724              	.LBB376:
 725              		.loc 2 558 0
 726 0214 03F07F03 		and	r3, r3, #127
 727              	.LVL62:
 728              	.LBE376:
 729              	.LBE391:
 730              		.loc 3 109 0
 731 0218 92ED005A 		vldr.32	s10, [r2]
 732              		.loc 3 111 0
 733 021c A268     		ldr	r2, [r4, #8]
 734              	.LBB392:
 735              	.LBB377:
 736              		.loc 2 560 0
 737 021e 01EB8307 		add	r7, r1, r3, lsl #2
 738 0222 0133     		adds	r3, r3, #1
 739              	.LVL63:
 740              	.LBE377:
 741              	.LBE392:
ARM GAS  /tmp/ccsqlT92.s 			page 14


 742              		.loc 3 109 0
 743 0224 35EE465A 		vsub.f32	s10, s10, s12
 744              	.LBB393:
 745              	.LBB378:
 746              		.loc 2 560 0
 747 0228 03F07F03 		and	r3, r3, #127
 748              	.LVL64:
 749 022c 01EB8303 		add	r3, r1, r3, lsl #2
 750              	.LVL65:
 751              	.LBE378:
 752              	.LBE393:
 753              		.loc 3 109 0
 754 0230 A7EE056A 		vfma.f32	s12, s14, s10
 755              	.LBB394:
 756              	.LBB379:
 757              		.loc 2 560 0
 758 0234 D7ED006A 		vldr.32	s13, [r7]
 759              	.LVL66:
 760              	.LBE379:
 761              	.LBE394:
 762              		.loc 3 109 0
 763 0238 93ED007A 		vldr.32	s14, [r3]
 764 023c F8EE655A 		vcvt.f32.u32	s11, s11
 765 0240 37EE667A 		vsub.f32	s14, s14, s13
 766 0244 77EEE57A 		vsub.f32	s15, s15, s11
 767 0248 BFEE00EA 		vmov.f32	s28, #-1.0e+0
 768 024c E7EE876A 		vfma.f32	s13, s15, s14
 769              	.LBB395:
 770              	.LBB396:
 771              		.loc 2 557 0
 772 0250 BCEECB7A 		vcvt.u32.f32	s14, s22
 773              	.LBE396:
 774              	.LBE395:
 775              		.loc 3 109 0
 776 0254 66EE8A6A 		vmul.f32	s13, s13, s20
 777              	.LBB405:
 778              	.LBB403:
 779              		.loc 2 557 0
 780 0258 B8EE477A 		vcvt.f32.u32	s14, s14
 781              	.LBE403:
 782              	.LBE405:
 783              		.loc 3 109 0
 784 025c E6EE2A6A 		vfma.f32	s13, s12, s21
 785              	.LVL67:
 786              	.LBB406:
 787              	.LBB404:
 788              		.loc 2 557 0
 789 0260 3BEE477A 		vsub.f32	s14, s22, s14
 790 0264 27EE0D7A 		vmul.f32	s14, s14, s26
 791              	.LVL68:
 792              		.loc 2 558 0
 793 0268 BCEEC76A 		vcvt.u32.f32	s12, s14
 794 026c 16EE103A 		vmov	r3, s12	@ int
 795 0270 03F07F03 		and	r3, r3, #127
 796              	.LVL69:
 797              		.loc 2 560 0
 798 0274 02EB8301 		add	r1, r2, r3, lsl #2
ARM GAS  /tmp/ccsqlT92.s 			page 15


 799 0278 0133     		adds	r3, r3, #1
 800              	.LVL70:
 801              	.LBB397:
 802              	.LBB398:
 803              		.loc 4 826 0
 804 027a B8EE466A 		vcvt.f32.u32	s12, s12
 805              	.LBE398:
 806              	.LBE397:
 807              		.loc 2 560 0
 808 027e 03F07F03 		and	r3, r3, #127
 809              	.LVL71:
 810 0282 02EB8303 		add	r3, r2, r3, lsl #2
 811              	.LVL72:
 812              	.LBB401:
 813              	.LBB399:
 814              		.loc 4 826 0
 815 0286 37EE467A 		vsub.f32	s14, s14, s12
 816              	.LVL73:
 817              	.LBE399:
 818              	.LBE401:
 819              		.loc 2 560 0
 820 028a D1ED007A 		vldr.32	s15, [r1]
 821              	.LVL74:
 822              	.LBB402:
 823              	.LBB400:
 824              		.loc 4 826 0
 825 028e 93ED006A 		vldr.32	s12, [r3]
 826 0292 36EE676A 		vsub.f32	s12, s12, s15
 827 0296 E7EE067A 		vfma.f32	s15, s14, s12
 828              	.LVL75:
 829              	.LBE400:
 830              	.LBE402:
 831              	.LBE404:
 832              	.LBE406:
 833              		.loc 3 112 0
 834 029a B7EE007A 		vmov.f32	s14, #1.0e+0
 835 029e 28EEA76A 		vmul.f32	s12, s17, s15
 836 02a2 77EE685A 		vsub.f32	s11, s14, s17
 837 02a6 F0EE47DA 		vmov.f32	s27, s14
 838 02aa A6EEA56A 		vfma.f32	s12, s13, s11
 839              		.loc 3 113 0
 840 02ae 66EE277A 		vmul.f32	s15, s12, s15
 841              		.loc 3 112 0
 842 02b2 F0EE466A 		vmov.f32	s13, s12
 843              	.LVL76:
 844              		.loc 3 113 0
 845 02b6 67EE897A 		vmul.f32	s15, s15, s18
 846 02ba 37EE496A 		vsub.f32	s12, s14, s18
 847              	.LVL77:
 848 02be E6EE867A 		vfma.f32	s15, s13, s12
 849              	.LVL78:
 850              	.LBB407:
 851              	.LBB408:
 852              	.LBB409:
 853              	.LBB410:
 854              	.LBB411:
 855              		.loc 4 193 0
ARM GAS  /tmp/ccsqlT92.s 			page 16


 856 02c2 77EE876A 		vadd.f32	s13, s15, s14
 857              	.LVL79:
 858 02c6 F5EEC06A 		vcmpe.f32	s13, #0
 859 02ca F1EE10FA 		vmrs	APSR_nzcv, FPSCR
 860 02ce 07DB     		blt	.L50
 861              	.LVL80:
 862 02d0 F4EEC77A 		vcmpe.f32	s15, s14
 863 02d4 F1EE10FA 		vmrs	APSR_nzcv, FPSCR
 864 02d8 A8BF     		it	ge
 865 02da F0EE477A 		vmovge.f32	s15, s14
 866              	.LVL81:
 867 02de 01E0     		b	.L19
 868              	.LVL82:
 869              	.L50:
 870 02e0 F0EE4E7A 		vmov.f32	s15, s28
 871              	.LVL83:
 872              	.L19:
 873              	.LBE411:
 874              	.LBE410:
 875              	.LBE409:
 876              	.LBE408:
 877              	.LBE407:
 878              	.LBB412:
 879              	.LBB413:
 880              		.file 5 "/home/horkheimer/coding/nts1/logue-sdk/platform/nutekt-digital/inc/dsp/biquad.hpp"
 881              		.loc 5 385 0
 882 02e4 94ED167A 		vldr.32	s14, [r4, #88]
 883 02e8 94ED1B8A 		vldr.32	s16, [r4, #108]
 884              		.loc 5 387 0
 885 02ec D4ED176A 		vldr.32	s13, [r4, #92]
 886              	.LBE413:
 887              	.LBE412:
 888              		.loc 3 117 0
 889 02f0 D4ED0BEA 		vldr.32	s29, [r4, #44]
 890              	.LBB415:
 891              	.LBB414:
 892              		.loc 5 385 0
 893 02f4 A7EE278A 		vfma.f32	s16, s14, s15
 894              	.LVL84:
 895              		.loc 5 387 0
 896 02f8 94ED197A 		vldr.32	s14, [r4, #100]
 897 02fc 27EE487A 		vnmul.f32	s14, s14, s16
 898 0300 A6EEA77A 		vfma.f32	s14, s13, s15
 899 0304 84ED1B7A 		vstr.32	s14, [r4, #108]
 900              	.LVL85:
 901              	.LBE414:
 902              	.LBE415:
 903              	.LBB416:
 904              	.LBB417:
 905              		.loc 2 780 0
 906 0308 FFF7FEFF 		bl	_osc_white
 907              	.LVL86:
 908              	.LBE417:
 909              	.LBE416:
 910              		.loc 3 118 0
 911 030c AEEE808A 		vfma.f32	s16, s29, s0
 912              	.LVL87:
ARM GAS  /tmp/ccsqlT92.s 			page 17


 913 0310 94ED0C7A 		vldr.32	s14, [r4, #48]
 914              	.LBB418:
 915              	.LBB419:
 916              		.loc 5 385 0
 917 0314 D4ED1D6A 		vldr.32	s13, [r4, #116]
 918              		.loc 5 387 0
 919 0318 94ED1E6A 		vldr.32	s12, [r4, #120]
 920              	.LBE419:
 921              	.LBE418:
 922              		.loc 3 118 0
 923 031c 28EE078A 		vmul.f32	s16, s16, s14
 924              	.LVL88:
 925 0320 94ED0D7A 		vldr.32	s14, [r4, #52]
 926              	.LBB424:
 927              	.LBB425:
 928              	.LBB426:
 929              	.LBB427:
 930              		.loc 4 276 0
 931 0324 18EE103A 		vmov	r3, s16	@ int
 932 0328 03F00043 		and	r3, r3, #-2147483648
 933 032c 43F07C53 		orr	r3, r3, #1056964608
 934              	.LBE427:
 935              	.LBE426:
 936              	.LBE425:
 937              	.LBE424:
 938              		.loc 3 118 0
 939 0330 07EE903A 		vmov	s15, r3
 940 0334 38EE278A 		vadd.f32	s16, s16, s15
 941              	.LBB428:
 942              	.LBB420:
 943              		.loc 5 385 0
 944 0338 D4ED227A 		vldr.32	s15, [r4, #136]
 945              	.LBE420:
 946              	.LBE428:
 947              		.loc 3 118 0
 948 033c BDEEC88A 		vcvt.s32.f32	s16, s16
 949 0340 B8EEC88A 		vcvt.f32.s32	s16, s16
 950 0344 28EE077A 		vmul.f32	s14, s16, s14
 951              	.LVL89:
 952              	.LBB429:
 953              	.LBB421:
 954              		.loc 5 385 0
 955 0348 E7EE267A 		vfma.f32	s15, s14, s13
 956              	.LVL90:
 957              		.loc 5 387 0
 958 034c D4ED206A 		vldr.32	s13, [r4, #128]
 959 0350 66EEE76A 		vnmul.f32	s13, s13, s15
 960              	.LBE421:
 961              	.LBE429:
 962              	.LBB430:
 963              	.LBB431:
 964              	.LBB432:
 965              	.LBB433:
 966              	.LBB434:
 967              	.LBB435:
 968              		.loc 4 193 0
 969 0354 F4EECE7A 		vcmpe.f32	s15, s28
ARM GAS  /tmp/ccsqlT92.s 			page 18


 970              	.LBE435:
 971              	.LBE434:
 972              	.LBE433:
 973              	.LBE432:
 974              	.LBE431:
 975              	.LBE430:
 976              	.LBB446:
 977              	.LBB422:
 978              		.loc 5 387 0
 979 0358 E7EE066A 		vfma.f32	s13, s14, s12
 980              	.LBE422:
 981              	.LBE446:
 982              	.LBB447:
 983              	.LBB444:
 984              	.LBB442:
 985              	.LBB440:
 986              	.LBB438:
 987              	.LBB436:
 988              		.loc 4 193 0
 989 035c F1EE10FA 		vmrs	APSR_nzcv, FPSCR
 990              	.LBE436:
 991              	.LBE438:
 992              	.LBE440:
 993              	.LBE442:
 994              	.LBE444:
 995              	.LBE447:
 996              	.LBB448:
 997              	.LBB423:
 998              		.loc 5 387 0
 999 0360 C4ED226A 		vstr.32	s13, [r4, #136]
 1000              	.LVL91:
 1001              	.LBE423:
 1002              	.LBE448:
 1003              	.LBB449:
 1004              	.LBB445:
 1005              	.LBB443:
 1006              	.LBB441:
 1007              	.LBB439:
 1008              	.LBB437:
 1009              		.loc 4 193 0
 1010 0364 34DB     		blt	.L51
 1011              	.LVL92:
 1012 0366 F4EEED7A 		vcmpe.f32	s15, s27
 1013 036a F1EE10FA 		vmrs	APSR_nzcv, FPSCR
 1014 036e B7EE007A 		vmov.f32	s14, #1.0e+0
 1015 0372 A8BF     		it	ge
 1016 0374 F0EE477A 		vmovge.f32	s15, s14
 1017              	.LVL93:
 1018 0378 2CE0     		b	.L21
 1019              	.L54:
 1020 037a 00BF     		.align	2
 1021              	.L53:
 1022 037c 00000000 		.word	.LANCHOR0
 1023 0380 00000000 		.word	midi_to_hz_lut_f
 1024 0384 8180803B 		.word	998277249
 1025 0388 3EC3AE37 		.word	934200126
 1026 038c 49FFB846 		.word	1186529097
ARM GAS  /tmp/ccsqlT92.s 			page 19


 1027 0390 3EC3AE36 		.word	917422910
 1028 0394 17B75136 		.word	911324951
 1029 0398 00000000 		.word	wavesB
 1030 039c 00000000 		.word	wavesC
 1031 03a0 00000000 		.word	wavesA
 1032 03a4 00000000 		.word	wavesE
 1033 03a8 00000000 		.word	wavesF
 1034 03ac 00000000 		.word	wavesD
 1035 03b0 77CCAB32 		.word	850119799
 1036 03b4 00000000 		.word	bitres_lut_f
 1037 03b8 00000043 		.word	1124073472
 1038 03bc 0AD7A33B 		.word	1000593162
 1039 03c0 52B87E3F 		.word	1065269330
 1040 03c4 DB0FC93F 		.word	1070141403
 1041 03c8 7B81CF3E 		.word	1053786491
 1042 03cc 83F9A23F 		.word	1067645315
 1043              	.LVL94:
 1044              	.L51:
 1045 03d0 FFEE007A 		vmov.f32	s15, #-1.0e+0
 1046              	.LVL95:
 1047              	.L21:
 1048              	.LBE437:
 1049              	.LBE439:
 1050              	.LBE441:
 1051              	.LBE443:
 1052              	.LBE445:
 1053              	.LBE449:
 1054              		.loc 3 122 0
 1055 03d4 27EEA77A 		vmul.f32	s14, s15, s15
 1056 03d8 F4EE006A 		vmov.f32	s13, #1.25e-1
 1057 03dc 27EEC77A 		vnmul.f32	s14, s15, s14
 1058 03e0 1FED08EA 		vldr.32	s28, .L53+72
 1059 03e4 E7EE267A 		vfma.f32	s15, s14, s13
 1060 03e8 94ED137A 		vldr.32	s14, [r4, #76]
 1061              	.LBB450:
 1062              	.LBB451:
 1063              	.LBB452:
 1064              	.LBB453:
 1065              		.loc 4 509 0
 1066 03ec 5FED0A6A 		vldr.32	s13, .L53+76
 1067              	.LBE453:
 1068              	.LBE452:
 1069              	.LBE451:
 1070              	.LBE450:
 1071              		.loc 3 122 0
 1072 03f0 67EE877A 		vmul.f32	s15, s15, s14
 1073              	.LBB484:
 1074              	.LBB476:
 1075              	.LBB460:
 1076              	.LBB454:
 1077              		.loc 4 509 0
 1078 03f4 1FED0B7A 		vldr.32	s14, .L53+80
 1079              	.LBE454:
 1080              	.LBE460:
 1081              	.LBE476:
 1082              	.LBE484:
 1083              		.loc 3 122 0
ARM GAS  /tmp/ccsqlT92.s 			page 20


 1084 03f8 67EE8E7A 		vmul.f32	s15, s15, s28
 1085              	.LVL96:
 1086              	.LBB485:
 1087              	.LBB477:
 1088              	.LBB461:
 1089              	.LBB455:
 1090              		.loc 4 506 0
 1091 03fc 17EE903A 		vmov	r3, s15	@ int
 1092 0400 03F00048 		and	r8, r3, #-2147483648
 1093              	.LVL97:
 1094              		.loc 4 507 0
 1095 0404 23F00043 		bic	r3, r3, #-2147483648
 1096              	.LVL98:
 1097 0408 08EE103A 		vmov	s16, r3	@ int
 1098              		.loc 4 509 0
 1099 040c 27EE888A 		vmul.f32	s16, s15, s16
 1100 0410 26EEC88A 		vnmul.f32	s16, s13, s16
 1101 0414 A7EE878A 		vfma.f32	s16, s15, s14
 1102              	.LVL99:
 1103              	.LBE455:
 1104              	.LBE461:
 1105              		.loc 4 599 0
 1106 0418 77EE8E7A 		vadd.f32	s15, s15, s28
 1107              	.LVL100:
 1108              	.LBB462:
 1109              	.LBB456:
 1110              		.loc 4 510 0
 1111 041c 28EE08FA 		vmul.f32	s30, s16, s16
 1112              	.LVL101:
 1113              	.LBE456:
 1114              	.LBE462:
 1115              	.LBB463:
 1116              	.LBB464:
 1117              		.loc 4 506 0
 1118 0420 17EE903A 		vmov	r3, s15	@ int
 1119 0424 03F00047 		and	r7, r3, #-2147483648
 1120              	.LVL102:
 1121              		.loc 4 507 0
 1122 0428 23F00043 		bic	r3, r3, #-2147483648
 1123              	.LVL103:
 1124 042c 0DEE903A 		vmov	s27, r3	@ int
 1125              		.loc 4 509 0
 1126 0430 67EEADDA 		vmul.f32	s27, s15, s27
 1127 0434 66EEEDDA 		vnmul.f32	s27, s13, s27
 1128 0438 E7EE87DA 		vfma.f32	s27, s15, s14
 1129              	.LVL104:
 1130              	.LBE464:
 1131              	.LBE463:
 1132              	.LBE477:
 1133              	.LBE485:
 1134              	.LBB486:
 1135              	.LBB487:
 1136              		.loc 2 780 0
 1137 043c FFF7FEFF 		bl	_osc_white
 1138              	.LVL105:
 1139              	.LBE487:
 1140              	.LBE486:
ARM GAS  /tmp/ccsqlT92.s 			page 21


 1141              	.LBB488:
 1142              	.LBB478:
 1143              	.LBB469:
 1144              	.LBB457:
 1145              		.loc 4 513 0
 1146 0440 334A     		ldr	r2, .L55
 1147              		.loc 4 514 0
 1148 0442 3449     		ldr	r1, .L55+4
 1149              		.loc 4 512 0
 1150 0444 344B     		ldr	r3, .L55+8
 1151              	.LBE457:
 1152              	.LBE469:
 1153              	.LBE478:
 1154              	.LBE488:
 1155              		.loc 3 131 0
 1156 0446 9FED356A 		vldr.32	s12, .L55+12
 1157              	.LBB489:
 1158              	.LBB479:
 1159              	.LBB470:
 1160              	.LBB458:
 1161              		.loc 4 513 0
 1162 044a 48EA0202 		orr	r2, r8, r2
 1163              		.loc 4 514 0
 1164 044e 88EA0101 		eor	r1, r8, r1
 1165              	.LBE458:
 1166              	.LBE470:
 1167              	.LBE479:
 1168              	.LBE489:
 1169              		.loc 3 131 0
 1170 0452 07EE901A 		vmov	s15, r1
 1171 0456 06EE902A 		vmov	s13, r2
 1172 045a EFEE276A 		vfma.f32	s13, s30, s15
 1173              	.LBB490:
 1174              	.LBB480:
 1175              	.LBB471:
 1176              	.LBB459:
 1177              		.loc 4 512 0
 1178 045e 48EA0303 		orr	r3, r8, r3
 1179              	.LBE459:
 1180              	.LBE471:
 1181              	.LBB472:
 1182              	.LBB465:
 1183              		.loc 4 513 0
 1184 0462 2B4A     		ldr	r2, .L55
 1185              		.loc 4 514 0
 1186 0464 2B49     		ldr	r1, .L55+4
 1187              	.LBE465:
 1188              	.LBE472:
 1189              	.LBE480:
 1190              	.LBE490:
 1191              		.loc 3 131 0
 1192 0466 07EE103A 		vmov	s14, r3
 1193              	.LBB491:
 1194              	.LBB481:
 1195              	.LBB473:
 1196              	.LBB466:
 1197              		.loc 4 513 0
ARM GAS  /tmp/ccsqlT92.s 			page 22


 1198 046a 3A43     		orrs	r2, r2, r7
 1199              		.loc 4 514 0
 1200 046c 7940     		eors	r1, r1, r7
 1201              		.loc 4 510 0
 1202 046e 6DEEADEA 		vmul.f32	s29, s27, s27
 1203              	.LVL106:
 1204              	.LBE466:
 1205              	.LBE473:
 1206              	.LBE481:
 1207              	.LBE491:
 1208              		.loc 3 131 0
 1209 0472 AFEE267A 		vfma.f32	s14, s30, s13
 1210              	.LBB492:
 1211              	.LBB482:
 1212              	.LBB474:
 1213              	.LBB467:
 1214              		.loc 4 512 0
 1215 0476 284B     		ldr	r3, .L55+8
 1216              	.LVL107:
 1217              	.LBE467:
 1218              	.LBE474:
 1219              	.LBE482:
 1220              	.LBE492:
 1221              		.loc 3 131 0
 1222 0478 07EE901A 		vmov	s15, r1
 1223 047c 06EE902A 		vmov	s13, r2
 1224 0480 EEEEA76A 		vfma.f32	s13, s29, s15
 1225              	.LBB493:
 1226              	.LBB483:
 1227              	.LBB475:
 1228              	.LBB468:
 1229              		.loc 4 512 0
 1230 0484 3B43     		orrs	r3, r3, r7
 1231              	.LVL108:
 1232              	.LBE468:
 1233              	.LBE475:
 1234              	.LBE483:
 1235              	.LBE493:
 1236              		.loc 3 131 0
 1237 0486 07EE903A 		vmov	s15, r3
 1238 048a EEEEA67A 		vfma.f32	s15, s29, s13
 1239 048e 27EE0F7A 		vmul.f32	s14, s14, s30
 1240 0492 67EEAE7A 		vmul.f32	s15, s15, s29
 1241 0496 A8EE067A 		vfma.f32	s14, s16, s12
 1242 049a EDEE867A 		vfma.f32	s15, s27, s12
 1243              		.loc 3 139 0
 1244 049e 7CEEA9CA 		vadd.f32	s25, s25, s19
 1245              	.LVL109:
 1246              		.loc 3 131 0
 1247 04a2 C7EE276A 		vdiv.f32	s13, s14, s15
 1248 04a6 9FED1E7A 		vldr.32	s14, .L55+16
 1249 04aa C6EE8E7A 		vdiv.f32	s15, s13, s28
 1250 04ae E0EE077A 		vfma.f32	s15, s0, s14
 1251 04b2 FEEEE07A 		vcvt.s32.f32	s15, s15, #31
 1252 04b6 E5EC017A 		vstmia.32	r5!, {s15}	@ int
 1253              	.LVL110:
 1254              		.loc 3 133 0
ARM GAS  /tmp/ccsqlT92.s 			page 23


 1255 04ba D4ED067A 		vldr.32	s15, [r4, #24]
 1256 04be 3CEE27CA 		vadd.f32	s24, s24, s15
 1257              	.LVL111:
 1258              		.loc 3 134 0
 1259 04c2 FCEECC7A 		vcvt.u32.f32	s15, s24
 1260 04c6 F8EE677A 		vcvt.f32.u32	s15, s15
 1261 04ca 3CEE67CA 		vsub.f32	s24, s24, s15
 1262              	.LVL112:
 1263              		.loc 3 135 0
 1264 04ce D4ED077A 		vldr.32	s15, [r4, #28]
 1265 04d2 7BEEA7BA 		vadd.f32	s23, s23, s15
 1266              	.LVL113:
 1267              		.loc 3 136 0
 1268 04d6 FCEEEB7A 		vcvt.u32.f32	s15, s23
 1269 04da F8EE677A 		vcvt.f32.u32	s15, s15
 1270 04de 7BEEE7BA 		vsub.f32	s23, s23, s15
 1271              	.LVL114:
 1272              		.loc 3 137 0
 1273 04e2 D4ED087A 		vldr.32	s15, [r4, #32]
 1274 04e6 3BEE27BA 		vadd.f32	s22, s22, s15
 1275              	.LVL115:
 1276              		.loc 3 138 0
 1277 04ea FCEECB7A 		vcvt.u32.f32	s15, s22
 1278 04ee F8EE677A 		vcvt.f32.u32	s15, s15
 1279 04f2 3BEE67BA 		vsub.f32	s22, s22, s15
 1280              	.LVL116:
 1281              	.LBE494:
 1282              		.loc 3 103 0
 1283 04f6 61E6     		b	.L23
 1284              	.LVL117:
 1285              	.L18:
 1286              	.LBE495:
 1287              		.loc 3 142 0
 1288 04f8 84ED03CA 		vstr.32	s24, [r4, #12]
 1289              		.loc 3 143 0
 1290 04fc C4ED04BA 		vstr.32	s23, [r4, #16]
 1291              		.loc 3 144 0
 1292 0500 84ED05BA 		vstr.32	s22, [r4, #20]
 1293              		.loc 3 145 0
 1294 0504 C4ED0ACA 		vstr.32	s25, [r4, #40]
 1295              		.loc 3 146 0
 1296 0508 BDEC108B 		vldm	sp!, {d8-d15}
 1297              		.cfi_restore 94
 1298              		.cfi_restore 95
 1299              		.cfi_restore 92
 1300              		.cfi_restore 93
 1301              		.cfi_restore 90
 1302              		.cfi_restore 91
 1303              		.cfi_restore 88
 1304              		.cfi_restore 89
 1305              		.cfi_restore 86
 1306              		.cfi_restore 87
 1307              		.cfi_restore 84
 1308              		.cfi_restore 85
 1309              		.cfi_restore 82
 1310              		.cfi_restore 83
 1311              		.cfi_restore 80
ARM GAS  /tmp/ccsqlT92.s 			page 24


 1312              		.cfi_restore 81
 1313              		.cfi_def_cfa_offset 24
 1314              	.LVL118:
 1315 050c BDE8F081 		pop	{r4, r5, r6, r7, r8, pc}
 1316              	.LVL119:
 1317              	.L56:
 1318              		.align	2
 1319              	.L55:
 1320 0510 9ACE773C 		.word	1014484634
 1321 0514 173253BB 		.word	-1152175593
 1322 0518 D786503E 		.word	1045464791
 1323 051c 61D1483F 		.word	1061736801
 1324 0520 CDCCCC3D 		.word	1036831949
 1325              		.cfi_endproc
 1326              	.LFE295:
 1327              		.size	_hook_cycle, .-_hook_cycle
 1328              		.align	1
 1329              		.global	_hook_on
 1330              		.thumb
 1331              		.thumb_func
 1332              		.type	_hook_on, %function
 1333              	_hook_on:
 1334              	.LFB296:
 1335              		.loc 3 149 0
 1336              		.cfi_startproc
 1337              		@ args = 0, pretend = 0, frame = 0
 1338              		@ frame_needed = 0, uses_anonymous_args = 0
 1339              		@ link register save eliminated.
 1340              	.LVL120:
 1341              		.loc 3 150 0
 1342 0524 034A     		ldr	r2, .L58
 1343 0526 92F83C30 		ldrb	r3, [r2, #60]	@ zero_extendqisi2
 1344 052a 43F04003 		orr	r3, r3, #64
 1345 052e 82F83C30 		strb	r3, [r2, #60]
 1346 0532 7047     		bx	lr
 1347              	.L59:
 1348              		.align	2
 1349              	.L58:
 1350 0534 00000000 		.word	.LANCHOR0
 1351              		.cfi_endproc
 1352              	.LFE296:
 1353              		.size	_hook_on, .-_hook_on
 1354              		.align	1
 1355              		.global	_hook_off
 1356              		.thumb
 1357              		.thumb_func
 1358              		.type	_hook_off, %function
 1359              	_hook_off:
 1360              	.LFB297:
 1361              		.loc 3 154 0
 1362              		.cfi_startproc
 1363              		@ args = 0, pretend = 0, frame = 0
 1364              		@ frame_needed = 0, uses_anonymous_args = 0
 1365              		@ link register save eliminated.
 1366              	.LVL121:
 1367 0538 7047     		bx	lr
 1368              		.cfi_endproc
ARM GAS  /tmp/ccsqlT92.s 			page 25


 1369              	.LFE297:
 1370              		.size	_hook_off, .-_hook_off
 1371              		.align	1
 1372              		.global	_hook_param
 1373              		.thumb
 1374              		.thumb_func
 1375              		.type	_hook_param, %function
 1376              	_hook_param:
 1377              	.LFB298:
 1378              		.loc 3 159 0
 1379              		.cfi_startproc
 1380              		@ args = 0, pretend = 0, frame = 0
 1381              		@ frame_needed = 0, uses_anonymous_args = 0
 1382              		@ link register save eliminated.
 1383              	.LVL122:
 1384              	.LBB496:
 1385              		.loc 3 163 0
 1386 053a 0728     		cmp	r0, #7
 1387 053c 00F2AE80 		bhi	.L61
 1388 0540 DFE800F0 		tbb	[pc, r0]
 1389              	.L64:
 1390 0544 04       		.byte	(.L63-.L64)/2
 1391 0545 13       		.byte	(.L65-.L64)/2
 1392 0546 22       		.byte	(.L66-.L64)/2
 1393 0547 2E       		.byte	(.L67-.L64)/2
 1394 0548 53       		.byte	(.L68-.L64)/2
 1395 0549 70       		.byte	(.L69-.L64)/2
 1396 054a 93       		.byte	(.L70-.L64)/2
 1397 054b 9F       		.byte	(.L71-.L64)/2
 1398              		.p2align 1
 1399              	.L63:
 1400              	.LBB497:
 1401              	.LBB498:
 1402              		.loc 3 169 0
 1403 054c 544B     		ldr	r3, .L90
 1404 054e 2E20     		movs	r0, #46
 1405              	.LVL123:
 1406 0550 B1FBF0F2 		udiv	r2, r1, r0
 1407 0554 00FB1211 		mls	r1, r0, r2, r1
 1408              	.LVL124:
 1409              		.loc 3 170 0
 1410 0558 93F83C20 		ldrb	r2, [r3, #60]	@ zero_extendqisi2
 1411              		.loc 3 169 0
 1412 055c 83F85410 		strb	r1, [r3, #84]
 1413              		.loc 3 170 0
 1414 0560 42F00202 		orr	r2, r2, #2
 1415 0564 83F83C20 		strb	r2, [r3, #60]
 1416              	.LBE498:
 1417              		.loc 3 172 0
 1418 0568 7047     		bx	lr
 1419              	.LVL125:
 1420              	.L65:
 1421              	.LBB499:
 1422              		.loc 3 179 0
 1423 056a 4D4B     		ldr	r3, .L90
 1424 056c 2C20     		movs	r0, #44
 1425              	.LVL126:
ARM GAS  /tmp/ccsqlT92.s 			page 26


 1426 056e B1FBF0F2 		udiv	r2, r1, r0
 1427 0572 00FB1211 		mls	r1, r0, r2, r1
 1428              	.LVL127:
 1429              		.loc 3 180 0
 1430 0576 93F83C20 		ldrb	r2, [r3, #60]	@ zero_extendqisi2
 1431              		.loc 3 179 0
 1432 057a 83F85510 		strb	r1, [r3, #85]
 1433              		.loc 3 180 0
 1434 057e 42F00402 		orr	r2, r2, #4
 1435 0582 83F83C20 		strb	r2, [r3, #60]
 1436              	.LBE499:
 1437              		.loc 3 182 0
 1438 0586 7047     		bx	lr
 1439              	.LVL128:
 1440              	.L66:
 1441              		.loc 3 187 0
 1442 0588 454B     		ldr	r3, .L90
 1443              		.loc 3 188 0
 1444 058a 93F83C20 		ldrb	r2, [r3, #60]	@ zero_extendqisi2
 1445              		.loc 3 187 0
 1446 058e 01F00F01 		and	r1, r1, #15
 1447              	.LVL129:
 1448              		.loc 3 188 0
 1449 0592 42F00802 		orr	r2, r2, #8
 1450              		.loc 3 187 0
 1451 0596 83F85610 		strb	r1, [r3, #86]
 1452              		.loc 3 188 0
 1453 059a 83F83C20 		strb	r2, [r3, #60]
 1454              		.loc 3 189 0
 1455 059e 7047     		bx	lr
 1456              	.LVL130:
 1457              	.L67:
 1458              		.loc 3 194 0
 1459 05a0 07EE901A 		vmov	s15, r1	@ int
 1460 05a4 9FED3F7A 		vldr.32	s14, .L90+4
 1461 05a8 DFED3F6A 		vldr.32	s13, .L90+8
 1462 05ac F8EEE77A 		vcvt.f32.s32	s15, s15
 1463 05b0 67EE877A 		vmul.f32	s15, s15, s14
 1464 05b4 9FED3D7A 		vldr.32	s14, .L90+12
 1465 05b8 A7EEA67A 		vfma.f32	s14, s15, s13
 1466              	.LBB500:
 1467              	.LBB501:
 1468              	.LBB502:
 1469              	.LBB503:
 1470              		.loc 4 193 0
 1471 05bc B5EEC07A 		vcmpe.f32	s14, #0
 1472 05c0 F1EE10FA 		vmrs	APSR_nzcv, FPSCR
 1473              	.LBE503:
 1474              	.LBE502:
 1475              	.LBE501:
 1476              	.LBE500:
 1477              		.loc 3 194 0
 1478 05c4 F0EE477A 		vmov.f32	s15, s14
 1479              	.LVL131:
 1480              	.LBB511:
 1481              	.LBB510:
 1482              	.LBB506:
ARM GAS  /tmp/ccsqlT92.s 			page 27


 1483              	.LBB504:
 1484              		.loc 4 193 0
 1485 05c8 09DB     		blt	.L87
 1486              	.LVL132:
 1487              	.LBE504:
 1488              	.LBE506:
 1489              	.LBB507:
 1490              	.LBB508:
 1491 05ca B7EE007A 		vmov.f32	s14, #1.0e+0
 1492              	.LVL133:
 1493              	.LBE508:
 1494              	.LBE507:
 1495              	.LBB509:
 1496              	.LBB505:
 1497 05ce F4EEC77A 		vcmpe.f32	s15, s14
 1498 05d2 F1EE10FA 		vmrs	APSR_nzcv, FPSCR
 1499 05d6 A8BF     		it	ge
 1500 05d8 F0EE477A 		vmovge.f32	s15, s14
 1501              	.LVL134:
 1502 05dc 01E0     		b	.L72
 1503              	.LVL135:
 1504              	.L87:
 1505 05de DFED347A 		vldr.32	s15, .L90+16
 1506              	.LVL136:
 1507              	.L72:
 1508              	.LBE505:
 1509              	.LBE509:
 1510              	.LBE510:
 1511              	.LBE511:
 1512              		.loc 3 194 0
 1513 05e2 2F4B     		ldr	r3, .L90
 1514 05e4 C3ED107A 		vstr.32	s15, [r3, #64]
 1515              		.loc 3 195 0
 1516 05e8 7047     		bx	lr
 1517              	.L68:
 1518              		.loc 3 200 0
 1519 05ea 07EE901A 		vmov	s15, r1	@ int
 1520 05ee 9FED2D7A 		vldr.32	s14, .L90+4
 1521 05f2 F8EEE77A 		vcvt.f32.s32	s15, s15
 1522 05f6 67EE877A 		vmul.f32	s15, s15, s14
 1523              	.LVL137:
 1524              	.LBB512:
 1525              	.LBB513:
 1526              	.LBB514:
 1527              	.LBB515:
 1528              		.loc 4 193 0
 1529 05fa F5EEC07A 		vcmpe.f32	s15, #0
 1530 05fe F1EE10FA 		vmrs	APSR_nzcv, FPSCR
 1531 0602 09DB     		blt	.L88
 1532              	.LVL138:
 1533              	.LBE515:
 1534              	.LBE514:
 1535              	.LBB517:
 1536              	.LBB518:
 1537 0604 B7EE007A 		vmov.f32	s14, #1.0e+0
 1538              	.LBE518:
 1539              	.LBE517:
ARM GAS  /tmp/ccsqlT92.s 			page 28


 1540              	.LBB519:
 1541              	.LBB516:
 1542 0608 F4EEC77A 		vcmpe.f32	s15, s14
 1543 060c F1EE10FA 		vmrs	APSR_nzcv, FPSCR
 1544 0610 A8BF     		it	ge
 1545 0612 F0EE477A 		vmovge.f32	s15, s14
 1546              	.LVL139:
 1547 0616 01E0     		b	.L74
 1548              	.LVL140:
 1549              	.L88:
 1550 0618 DFED257A 		vldr.32	s15, .L90+16
 1551              	.LVL141:
 1552              	.L74:
 1553              	.LBE516:
 1554              	.LBE519:
 1555              	.LBE513:
 1556              	.LBE512:
 1557              		.loc 3 200 0
 1558 061c 204B     		ldr	r3, .L90
 1559 061e C3ED117A 		vstr.32	s15, [r3, #68]
 1560              		.loc 3 201 0
 1561 0622 7047     		bx	lr
 1562              	.L69:
 1563              		.loc 3 206 0
 1564 0624 07EE901A 		vmov	s15, r1	@ int
 1565 0628 9FED1E7A 		vldr.32	s14, .L90+4
 1566 062c F8EEE77A 		vcvt.f32.s32	s15, s15
 1567 0630 67EE877A 		vmul.f32	s15, s15, s14
 1568              	.LVL142:
 1569              	.LBB520:
 1570              	.LBB521:
 1571              	.LBB522:
 1572              	.LBB523:
 1573              		.loc 4 193 0
 1574 0634 F5EEC07A 		vcmpe.f32	s15, #0
 1575 0638 F1EE10FA 		vmrs	APSR_nzcv, FPSCR
 1576 063c 09DB     		blt	.L89
 1577              	.LVL143:
 1578              	.LBE523:
 1579              	.LBE522:
 1580              	.LBB525:
 1581              	.LBB526:
 1582 063e B7EE007A 		vmov.f32	s14, #1.0e+0
 1583              	.LBE526:
 1584              	.LBE525:
 1585              	.LBB527:
 1586              	.LBB524:
 1587 0642 F4EEC77A 		vcmpe.f32	s15, s14
 1588 0646 F1EE10FA 		vmrs	APSR_nzcv, FPSCR
 1589 064a A8BF     		it	ge
 1590 064c F0EE477A 		vmovge.f32	s15, s14
 1591              	.LVL144:
 1592 0650 01E0     		b	.L76
 1593              	.LVL145:
 1594              	.L89:
 1595 0652 DFED177A 		vldr.32	s15, .L90+16
 1596              	.LVL146:
ARM GAS  /tmp/ccsqlT92.s 			page 29


 1597              	.L76:
 1598              	.LBE524:
 1599              	.LBE527:
 1600              	.LBE521:
 1601              	.LBE520:
 1602              		.loc 3 206 0
 1603 0656 124B     		ldr	r3, .L90
 1604              		.loc 3 207 0
 1605 0658 93F83C20 		ldrb	r2, [r3, #60]	@ zero_extendqisi2
 1606              		.loc 3 206 0
 1607 065c C3ED127A 		vstr.32	s15, [r3, #72]
 1608              		.loc 3 207 0
 1609 0660 42F02002 		orr	r2, r2, #32
 1610 0664 83F83C20 		strb	r2, [r3, #60]
 1611              		.loc 3 208 0
 1612 0668 7047     		bx	lr
 1613              	.L70:
 1614              		.loc 3 212 0
 1615 066a 07EE901A 		vmov	s15, r1	@ int
 1616 066e 9FED117A 		vldr.32	s14, .L90+20
 1617 0672 0B4B     		ldr	r3, .L90
 1618 0674 F8EEE77A 		vcvt.f32.s32	s15, s15
 1619 0678 67EE877A 		vmul.f32	s15, s15, s14
 1620 067c C3ED137A 		vstr.32	s15, [r3, #76]
 1621              		.loc 3 213 0
 1622 0680 7047     		bx	lr
 1623              	.L71:
 1624              		.loc 3 217 0
 1625 0682 07EE901A 		vmov	s15, r1	@ int
 1626 0686 DFED0B6A 		vldr.32	s13, .L90+20
 1627 068a 054B     		ldr	r3, .L90
 1628 068c F8EEE77A 		vcvt.f32.s32	s15, s15
 1629 0690 B7EE007A 		vmov.f32	s14, #1.0e+0
 1630 0694 A7EEA67A 		vfma.f32	s14, s15, s13
 1631 0698 83ED147A 		vstr.32	s14, [r3, #80]
 1632              	.L61:
 1633 069c 7047     		bx	lr
 1634              	.L91:
 1635 069e 00BF     		.align	2
 1636              	.L90:
 1637 06a0 00000000 		.word	.LANCHOR0
 1638 06a4 0AD7233C 		.word	1008981770
 1639 06a8 6666663F 		.word	1063675494
 1640 06ac CDCC4C3D 		.word	1028443341
 1641 06b0 00000000 		.word	0
 1642 06b4 0820803A 		.word	981475336
 1643              	.LBE497:
 1644              	.LBE496:
 1645              		.cfi_endproc
 1646              	.LFE298:
 1647              		.size	_hook_param, .-_hook_param
 1648              		.section	.text.startup,"ax",%progbits
 1649              		.align	1
 1650              		.thumb
 1651              		.thumb_func
 1652              		.type	_GLOBAL__sub_I__hook_init, %function
 1653              	_GLOBAL__sub_I__hook_init:
ARM GAS  /tmp/ccsqlT92.s 			page 30


 1654              	.LFB300:
 1655              		.loc 3 223 0
 1656              		.cfi_startproc
 1657              		@ args = 0, pretend = 0, frame = 64
 1658              		@ frame_needed = 0, uses_anonymous_args = 0
 1659              	.LVL147:
 1660 0000 2DE9F043 		push	{r4, r5, r6, r7, r8, r9, lr}
 1661              		.cfi_def_cfa_offset 28
 1662              		.cfi_offset 4, -28
 1663              		.cfi_offset 5, -24
 1664              		.cfi_offset 6, -20
 1665              		.cfi_offset 7, -16
 1666              		.cfi_offset 8, -12
 1667              		.cfi_offset 9, -8
 1668              		.cfi_offset 14, -4
 1669              	.LBB561:
 1670              	.LBB562:
 1671              	.LBB563:
 1672              	.LBB564:
 1673              		.loc 1 125 0
 1674 0004 354C     		ldr	r4, .L93
 1675              	.LBB565:
 1676              	.LBB566:
 1677              		.loc 1 76 0
 1678 0006 DFF8E890 		ldr	r9, .L93+20
 1679              	.LBE566:
 1680              	.LBE565:
 1681              	.LBE564:
 1682              	.LBE563:
 1683              	.LBE562:
 1684              	.LBE561:
 1685              		.loc 3 223 0
 1686 000a 91B0     		sub	sp, sp, #68
 1687              		.cfi_def_cfa_offset 96
 1688              	.LBB612:
 1689              	.LBB611:
 1690              	.LBB610:
 1691              	.LBB609:
 1692              		.loc 1 125 0
 1693 000c 2046     		mov	r0, r4
 1694 000e FFF7FEFF 		bl	_ZN5Waves5StateC1Ev
 1695              	.LVL148:
 1696              	.LBB569:
 1697              	.LBB567:
 1698              		.loc 1 76 0
 1699 0012 0025     		movs	r5, #0
 1700 0014 4FF00008 		mov	r8, #0
 1701              	.LBE567:
 1702              	.LBE569:
 1703              	.LBB570:
 1704              	.LBB571:
 1705              		.loc 1 130 0
 1706 0018 6846     		mov	r0, sp
 1707 001a 6E46     		mov	r6, sp
 1708              	.LBE571:
 1709              	.LBE570:
 1710              	.LBB599:
ARM GAS  /tmp/ccsqlT92.s 			page 31


 1711              	.LBB568:
 1712              		.loc 1 76 0
 1713 001c C4F84090 		str	r9, [r4, #64]	@ float
 1714 0020 6564     		str	r5, [r4, #68]	@ float
 1715 0022 A564     		str	r5, [r4, #72]	@ float
 1716 0024 E564     		str	r5, [r4, #76]	@ float
 1717 0026 2565     		str	r5, [r4, #80]	@ float
 1718 0028 84F85480 		strb	r8, [r4, #84]
 1719 002c 84F85580 		strb	r8, [r4, #85]
 1720 0030 84F85680 		strb	r8, [r4, #86]
 1721              	.LVL149:
 1722              	.LBE568:
 1723              	.LBE599:
 1724              	.LBB600:
 1725              	.LBB601:
 1726              	.LBB602:
 1727              	.LBB603:
 1728              		.loc 5 77 0
 1729 0034 A565     		str	r5, [r4, #88]	@ float
 1730 0036 E565     		str	r5, [r4, #92]	@ float
 1731 0038 2566     		str	r5, [r4, #96]	@ float
 1732 003a 6566     		str	r5, [r4, #100]	@ float
 1733 003c A566     		str	r5, [r4, #104]	@ float
 1734              	.LVL150:
 1735              	.LBE603:
 1736              	.LBE602:
 1737              		.loc 5 344 0
 1738 003e E566     		str	r5, [r4, #108]	@ float
 1739 0040 2567     		str	r5, [r4, #112]	@ float
 1740              	.LVL151:
 1741              	.LBE601:
 1742              	.LBE600:
 1743              	.LBB604:
 1744              	.LBB605:
 1745              	.LBB606:
 1746              	.LBB607:
 1747              		.loc 5 77 0
 1748 0042 6567     		str	r5, [r4, #116]	@ float
 1749 0044 A567     		str	r5, [r4, #120]	@ float
 1750 0046 E567     		str	r5, [r4, #124]	@ float
 1751 0048 C4F88050 		str	r5, [r4, #128]	@ float
 1752 004c C4F88450 		str	r5, [r4, #132]	@ float
 1753              	.LVL152:
 1754              	.LBE607:
 1755              	.LBE606:
 1756              		.loc 5 344 0
 1757 0050 C4F88850 		str	r5, [r4, #136]	@ float
 1758 0054 C4F88C50 		str	r5, [r4, #140]	@ float
 1759              	.LVL153:
 1760              	.LBE605:
 1761              	.LBE604:
 1762              	.LBB608:
 1763              	.LBB598:
 1764              		.loc 1 130 0
 1765 0058 FFF7FEFF 		bl	_ZN5Waves5StateC1Ev
 1766              	.LVL154:
 1767 005c 0FCE     		ldmia	r6!, {r0, r1, r2, r3}
ARM GAS  /tmp/ccsqlT92.s 			page 32


 1768 005e 2746     		mov	r7, r4
 1769 0060 0FC7     		stmia	r7!, {r0, r1, r2, r3}
 1770 0062 0FCE     		ldmia	r6!, {r0, r1, r2, r3}
 1771 0064 0FC7     		stmia	r7!, {r0, r1, r2, r3}
 1772 0066 0FCE     		ldmia	r6!, {r0, r1, r2, r3}
 1773 0068 0FC7     		stmia	r7!, {r0, r1, r2, r3}
 1774 006a 96E80F00 		ldmia	r6, {r0, r1, r2, r3}
 1775 006e 07C7     		stmia	r7!, {r0, r1, r2}
 1776 0070 3B70     		strb	r3, [r7]
 1777              	.LBB572:
 1778              	.LBB573:
 1779              		.loc 5 102 0
 1780 0072 1B4B     		ldr	r3, .L93+4
 1781              	.LBE573:
 1782              	.LBE572:
 1783              		.loc 1 131 0
 1784 0074 C4F84090 		str	r9, [r4, #64]	@ float
 1785              	.LBB576:
 1786              	.LBB574:
 1787              		.loc 5 102 0
 1788 0078 A365     		str	r3, [r4, #88]	@ float
 1789              		.loc 5 103 0
 1790 007a 1A4B     		ldr	r3, .L93+8
 1791 007c 6366     		str	r3, [r4, #100]	@ float
 1792              	.LBE574:
 1793              	.LBE576:
 1794              	.LBB577:
 1795              	.LBB578:
 1796              		.loc 2 623 0
 1797 007e 1A4B     		ldr	r3, .L93+12
 1798              	.LBB579:
 1799              	.LBB580:
 1800              		.loc 4 826 0
 1801 0080 DFED1A6A 		vldr.32	s13, .L93+16
 1802              	.LBE580:
 1803              	.LBE579:
 1804              		.loc 2 623 0
 1805 0084 D3EDEB7A 		vldr.32	s15, [r3, #940]
 1806              	.LBB584:
 1807              	.LBB581:
 1808              		.loc 4 826 0
 1809 0088 93EDEC7A 		vldr.32	s14, [r3, #944]
 1810              	.LBE581:
 1811              	.LBE584:
 1812              	.LBE578:
 1813              	.LBE577:
 1814              		.loc 1 131 0
 1815 008c 6564     		str	r5, [r4, #68]	@ float
 1816              	.LBB589:
 1817              	.LBB587:
 1818              	.LBB585:
 1819              	.LBB582:
 1820              		.loc 4 826 0
 1821 008e 37EE677A 		vsub.f32	s14, s14, s15
 1822              	.LBE582:
 1823              	.LBE585:
 1824              	.LBE587:
ARM GAS  /tmp/ccsqlT92.s 			page 33


 1825              	.LBE589:
 1826              		.loc 1 131 0
 1827 0092 A564     		str	r5, [r4, #72]	@ float
 1828              	.LBB590:
 1829              	.LBB588:
 1830              	.LBB586:
 1831              	.LBB583:
 1832              		.loc 4 826 0
 1833 0094 E7EE267A 		vfma.f32	s15, s14, s13
 1834              	.LBE583:
 1835              	.LBE586:
 1836              	.LBE588:
 1837              	.LBE590:
 1838              		.loc 1 131 0
 1839 0098 E564     		str	r5, [r4, #76]	@ float
 1840 009a 2565     		str	r5, [r4, #80]	@ float
 1841              	.LBB591:
 1842              	.LBB592:
 1843              		.loc 5 139 0
 1844 009c F7EE006A 		vmov.f32	s13, #1.0e+0
 1845 00a0 37EEA67A 		vadd.f32	s14, s15, s13
 1846              	.LBE592:
 1847              	.LBE591:
 1848              		.loc 1 131 0
 1849 00a4 84F85480 		strb	r8, [r4, #84]
 1850              	.LBB595:
 1851              	.LBB593:
 1852              		.loc 5 141 0
 1853 00a8 87EE876A 		vdiv.f32	s12, s15, s14
 1854              	.LBE593:
 1855              	.LBE595:
 1856              		.loc 1 131 0
 1857 00ac 84F85580 		strb	r8, [r4, #85]
 1858 00b0 84F85680 		strb	r8, [r4, #86]
 1859              	.LVL155:
 1860              	.LBB596:
 1861              	.LBB575:
 1862              		.loc 5 104 0
 1863 00b4 E565     		str	r5, [r4, #92]	@ float
 1864 00b6 2566     		str	r5, [r4, #96]	@ float
 1865 00b8 A566     		str	r5, [r4, #104]	@ float
 1866              	.LVL156:
 1867              	.LBE575:
 1868              	.LBE596:
 1869              	.LBB597:
 1870              	.LBB594:
 1871              		.loc 5 143 0
 1872 00ba E567     		str	r5, [r4, #124]	@ float
 1873 00bc C4F88450 		str	r5, [r4, #132]	@ float
 1874              	.LVL157:
 1875              		.loc 5 142 0
 1876 00c0 77EEE67A 		vsub.f32	s15, s15, s13
 1877              		.loc 5 141 0
 1878 00c4 84ED1E6A 		vstr.32	s12, [r4, #120]
 1879              		.loc 5 142 0
 1880 00c8 C7EE876A 		vdiv.f32	s13, s15, s14
 1881              		.loc 5 141 0
ARM GAS  /tmp/ccsqlT92.s 			page 34


 1882 00cc 84ED1D6A 		vstr.32	s12, [r4, #116]
 1883              		.loc 5 142 0
 1884 00d0 C4ED206A 		vstr.32	s13, [r4, #128]
 1885              	.LBE594:
 1886              	.LBE597:
 1887              	.LBE598:
 1888              	.LBE608:
 1889              	.LBE609:
 1890              	.LBE610:
 1891              	.LBE611:
 1892              	.LBE612:
 1893              		.loc 3 223 0
 1894 00d4 11B0     		add	sp, sp, #68
 1895              		.cfi_def_cfa_offset 28
 1896              		@ sp needed
 1897 00d6 BDE8F083 		pop	{r4, r5, r6, r7, r8, r9, pc}
 1898              	.L94:
 1899 00da 00BF     		.align	2
 1900              	.L93:
 1901 00dc 00000000 		.word	.LANCHOR0
 1902 00e0 CCCC4C3E 		.word	1045220556
 1903 00e4 CDCC4CBF 		.word	-1085485875
 1904 00e8 00000000 		.word	tanpi_lut_f
 1905 00ec 00F8D03D 		.word	1037105152
 1906 00f0 CDCC4C3D 		.word	1028443341
 1907              		.cfi_endproc
 1908              	.LFE300:
 1909              		.size	_GLOBAL__sub_I__hook_init, .-_GLOBAL__sub_I__hook_init
 1910              		.section	.init_array,"aw",%init_array
 1911              		.align	2
 1912 0000 00000000 		.word	_GLOBAL__sub_I__hook_init(target1)
 1913              		.bss
 1914              		.align	2
 1915              		.set	.LANCHOR0,. + 0
 1916              		.type	_ZL7s_waves, %object
 1917              		.size	_ZL7s_waves, 144
 1918              	_ZL7s_waves:
 1919 0000 00000000 		.space	144
 1919      00000000 
 1919      00000000 
 1919      00000000 
 1919      00000000 
 1920              		.text
 1921              	.Letext0:
 1922              		.file 6 "/home/horkheimer/coding/nts1/logue-sdk/tools/gcc/gcc-arm-none-eabi-5_4-2016q3/arm-none-ea
 1923              		.file 7 "/home/horkheimer/coding/nts1/logue-sdk/tools/gcc/gcc-arm-none-eabi-5_4-2016q3/arm-none-ea
 1924              		.file 8 "/home/horkheimer/coding/nts1/logue-sdk/platform/nutekt-digital/../ext/CMSIS/CMSIS/Include
 1925              		.file 9 "/home/horkheimer/coding/nts1/logue-sdk/platform/nutekt-digital/inc/userosc.h"
 1926              		.file 10 "/home/horkheimer/coding/nts1/logue-sdk/platform/nutekt-digital/inc/utils/int_math.h"